; Function Attrs: nounwind uwtable
define internal noundef ptr @_operator_is_(ptr readnone captures(none) %0, ptr noundef readonly captures(none) %1, i64 noundef %2) #0 {
  %or.cond = icmp eq i64 %2, 2
  br i1 %or.cond, label %6, label %4

4:                                                ; preds = %3
  %5 = tail call i32 @_PyArg_CheckPositional(ptr noundef nonnull @.str.5, i64 noundef %2, i64 noundef 2, i64 noundef 2) #7
  %.not = icmp eq i32 %5, 0
  br i1 %.not, label %_operator_is__impl.exit, label %6

6:                                                ; preds = %3, %4
  %7 = load ptr, ptr %1, align 8, !tbaa !17
  %8 = getelementptr i8, ptr %1, i64 8
  %9 = load ptr, ptr %8, align 8, !tbaa !17
  %10 = icmp eq ptr %7, %9
  %11 = select i1 %10, ptr @_Py_TrueStruct, ptr @_Py_FalseStruct
  %12 = load i32, ptr %11, align 8, !tbaa !18
  %13 = icmp slt i32 %12, 0
  br i1 %13, label %_operator_is__impl.exit, label %14

14:                                               ; preds = %6
  %15 = add nuw i32 %12, 1
  store i32 %15, ptr %11, align 8, !tbaa !18
  br label %_operator_is__impl.exit

_operator_is__impl.exit:                          ; preds = %14, %6, %4
  %.0 = phi ptr [ null, %4 ], [ %11, %6 ], [ %11, %14 ]
  ret ptr %.0
}